; Function Attrs: mustprogress nofree norecurse nosync nounwind willreturn memory(argmem: read) uwtable
define hidden noundef zeroext i1 @_ZNK3dpx6Header9DatumSwapEi(ptr noundef nonnull readonly align 4 captures(none) dereferenceable(2049) %0, i32 noundef %1) local_unnamed_addr #11 align 2 {
  %3 = getelementptr inbounds nuw i8, ptr %0, i64 2048
  %4 = load i8, ptr %3, align 4, !tbaa !55, !range !89, !noundef !90
  %5 = trunc nuw i8 %4 to i1
  %or.cond.i = icmp ult i32 %1, 8
  %or.cond.not = and i1 %or.cond.i, %5
  br i1 %or.cond.not, label %_ZNK3dpx13GenericHeader15ImageDescriptorEi.exit, label %_ZNK3dpx13GenericHeader15ImageDescriptorEi.exit6.thread

_ZNK3dpx13GenericHeader15ImageDescriptorEi.exit:  ; preds = %2
  %6 = getelementptr inbounds nuw i8, ptr %0, i64 780
  %narrow.i = mul nuw nsw i32 %1, 72
  %7 = zext nneg i32 %narrow.i to i64
  %8 = getelementptr inbounds nuw i8, ptr %6, i64 %7
  %9 = getelementptr inbounds nuw i8, ptr %8, i64 20
  %10 = load i8, ptr %9, align 4, !tbaa !65
  %switch.selectcmp.case1 = icmp eq i8 %10, 50
  %switch.selectcmp.case2 = icmp eq i8 %10, 100
  %switch.selectcmp = or i1 %switch.selectcmp.case1, %switch.selectcmp.case2
  br label %_ZNK3dpx13GenericHeader15ImageDescriptorEi.exit6.thread

_ZNK3dpx13GenericHeader15ImageDescriptorEi.exit6.thread: ; preds = %2, %_ZNK3dpx13GenericHeader15ImageDescriptorEi.exit
  %.0 = phi i1 [ %switch.selectcmp, %_ZNK3dpx13GenericHeader15ImageDescriptorEi.exit ], [ false, %2 ]
  ret i1 %.0
}